target datalayout = "e-m:e-p270:32:32-p271:32:32-p272:64:64-i64:64-i128:128-f80:128-n8:16:32:64-S128"
target triple = "x86_64-pc-linux-gnu"

%struct.lxb_html_tree = type { ptr, ptr, ptr, ptr, ptr, ptr, ptr, %struct.lxb_html_tree_pending_table_t, ptr, i8, i8, i8, i8, i8, i8, ptr, ptr, ptr, i32, i64 }
%struct.lxb_html_tree_pending_table_t = type { ptr, i8 }
%struct.lexbor_array_t = type { ptr, i64, i64 }
%struct.lxb_dom_node = type { %struct.lxb_dom_event_target, i64, i64, i64, ptr, ptr, ptr, ptr, ptr, ptr, ptr, i32, i64 }
%struct.lxb_dom_event_target = type { ptr }

; Function Attrs: inlinehint nounwind uwtable
define internal ptr @lxb_html_tree_insert_html_element(ptr noundef %0, ptr noundef %1) #3 {
  %3 = alloca ptr, align 8
  %4 = alloca ptr, align 8
  store ptr %0, ptr %3, align 8, !tbaa !4
  store ptr %1, ptr %4, align 8, !tbaa !9
  %5 = load ptr, ptr %3, align 8, !tbaa !4
  %6 = load ptr, ptr %4, align 8, !tbaa !9
  %7 = call ptr @lxb_html_tree_insert_foreign_element(ptr noundef %5, ptr noundef %6, i64 noundef 2)
  ret ptr %7
}

; Function Attrs: inlinehint nounwind uwtable
define internal zeroext i1 @lxb_html_tag_is_category(i64 noundef %0, i64 noundef %1, i32 noundef %2) #3 {
  %4 = alloca i1, align 1
  %5 = alloca i64, align 8
  %6 = alloca i64, align 8
  %7 = alloca i32, align 4
  store i64 %0, ptr %5, align 8, !tbaa !50
  store i64 %1, ptr %6, align 8, !tbaa !50
  store i32 %2, ptr %7, align 4, !tbaa !85
  %8 = load i64, ptr %5, align 8, !tbaa !50
  %9 = icmp ult i64 %8, 196
  br i1 %9, label %10, label %22

10:                                               ; preds = %3
  %11 = load i64, ptr %6, align 8, !tbaa !50
  %12 = icmp ult i64 %11, 8
  br i1 %12, label %13, label %22

13:                                               ; preds = %10
  %14 = load i64, ptr %5, align 8, !tbaa !50
  %15 = getelementptr inbounds nuw [196 x [8 x i32]], ptr @lxb_html_tag_res_cats, i64 0, i64 %14
  %16 = load i64, ptr %6, align 8, !tbaa !50
  %17 = getelementptr inbounds nuw [8 x i32], ptr %15, i64 0, i64 %16
  %18 = load i32, ptr %17, align 4, !tbaa !85
  %19 = load i32, ptr %7, align 4, !tbaa !85
  %20 = and i32 %18, %19
  %21 = icmp ne i32 %20, 0
  store i1 %21, ptr %4, align 1
  br label %26

22:                                               ; preds = %10, %3
  %23 = load i32, ptr %7, align 4, !tbaa !85
  %24 = and i32 129, %23
  %25 = icmp ne i32 %24, 0
  store i1 %25, ptr %4, align 1
  br label %26

26:                                               ; preds = %22, %13
  %27 = load i1, ptr %4, align 1
  ret i1 %27
}

; Function Attrs: inlinehint nounwind uwtable
define internal ptr @lxb_html_tree_current_node(ptr noundef %0) #3 {
  %2 = alloca ptr, align 8
  %3 = alloca ptr, align 8
  store ptr %0, ptr %3, align 8, !tbaa !4
  %4 = load ptr, ptr %3, align 8, !tbaa !4
  %5 = getelementptr inbounds nuw %struct.lxb_html_tree, ptr %4, i32 0, i32 4
  %6 = load ptr, ptr %5, align 8, !tbaa !44
  %7 = getelementptr inbounds nuw %struct.lexbor_array_t, ptr %6, i32 0, i32 2
  %8 = load i64, ptr %7, align 8, !tbaa !49
  %9 = icmp eq i64 %8, 0
  br i1 %9, label %10, label %11

10:                                               ; preds = %1
  store ptr null, ptr %2, align 8
  br label %25

11:                                               ; preds = %1
  %12 = load ptr, ptr %3, align 8, !tbaa !4
  %13 = getelementptr inbounds nuw %struct.lxb_html_tree, ptr %12, i32 0, i32 4
  %14 = load ptr, ptr %13, align 8, !tbaa !44
  %15 = getelementptr inbounds nuw %struct.lexbor_array_t, ptr %14, i32 0, i32 0
  %16 = load ptr, ptr %15, align 8, !tbaa !45
  %17 = load ptr, ptr %3, align 8, !tbaa !4
  %18 = getelementptr inbounds nuw %struct.lxb_html_tree, ptr %17, i32 0, i32 4
  %19 = load ptr, ptr %18, align 8, !tbaa !44
  %20 = getelementptr inbounds nuw %struct.lexbor_array_t, ptr %19, i32 0, i32 2
  %21 = load i64, ptr %20, align 8, !tbaa !49
  %22 = sub i64 %21, 1
  %23 = getelementptr inbounds nuw ptr, ptr %16, i64 %22
  %24 = load ptr, ptr %23, align 8, !tbaa !9
  store ptr %24, ptr %2, align 8
  br label %25

25:                                               ; preds = %11, %10
  %26 = load ptr, ptr %2, align 8
  ret ptr %26
}

; Function Attrs: inlinehint nounwind uwtable
define internal zeroext i1 @lxb_html_tree_node_is(ptr noundef %0, i64 noundef %1) #3 {
  %3 = alloca ptr, align 8
  %4 = alloca i64, align 8
  store ptr %0, ptr %3, align 8, !tbaa !37
  store i64 %1, ptr %4, align 8, !tbaa !50
  %5 = load ptr, ptr %3, align 8, !tbaa !37
  %6 = getelementptr inbounds nuw %struct.lxb_dom_node, ptr %5, i32 0, i32 1
  %7 = load i64, ptr %6, align 8, !tbaa !51
  %8 = load i64, ptr %4, align 8, !tbaa !50
  %9 = icmp eq i64 %7, %8
  br i1 %9, label %10, label %15

10:                                               ; preds = %2
  %11 = load ptr, ptr %3, align 8, !tbaa !37
  %12 = getelementptr inbounds nuw %struct.lxb_dom_node, ptr %11, i32 0, i32 3
  %13 = load i64, ptr %12, align 8, !tbaa !55
  %14 = icmp eq i64 %13, 2
  br label %15

15:                                               ; preds = %10, %2
  %16 = phi i1 [ false, %2 ], [ %14, %10 ]
  ret i1 %16
}

; Function Attrs: inlinehint nounwind uwtable
define internal zeroext i1 @lxb_html_tree_insertion_mode_in_body_li(ptr noundef %0, ptr noundef %1) #3 {
  %3 = alloca i1, align 1
  %4 = alloca ptr, align 8
  %5 = alloca ptr, align 8
  %6 = alloca i8, align 1
  %7 = alloca ptr, align 8
  %8 = alloca ptr, align 8
  %9 = alloca ptr, align 8
  %10 = alloca i64, align 8
  %11 = alloca i32, align 4
  store ptr %0, ptr %4, align 8, !tbaa !4
  store ptr %1, ptr %5, align 8, !tbaa !9
  call void @llvm.lifetime.start.p0(i64 1, ptr %6) #5
  call void @llvm.lifetime.start.p0(i64 8, ptr %7) #5
  call void @llvm.lifetime.start.p0(i64 8, ptr %8) #5
  call void @llvm.lifetime.start.p0(i64 8, ptr %9) #5
  %12 = load ptr, ptr %4, align 8, !tbaa !4
  %13 = getelementptr inbounds nuw %struct.lxb_html_tree, ptr %12, i32 0, i32 4
  %14 = load ptr, ptr %13, align 8, !tbaa !44
  %15 = getelementptr inbounds nuw %struct.lexbor_array_t, ptr %14, i32 0, i32 0
  %16 = load ptr, ptr %15, align 8, !tbaa !45
  store ptr %16, ptr %9, align 8, !tbaa !9
  call void @llvm.lifetime.start.p0(i64 8, ptr %10) #5
  %17 = load ptr, ptr %4, align 8, !tbaa !4
  %18 = getelementptr inbounds nuw %struct.lxb_html_tree, ptr %17, i32 0, i32 4
  %19 = load ptr, ptr %18, align 8, !tbaa !44
  %20 = getelementptr inbounds nuw %struct.lexbor_array_t, ptr %19, i32 0, i32 2
  %21 = load i64, ptr %20, align 8, !tbaa !49
  store i64 %21, ptr %10, align 8, !tbaa !50
  %22 = load ptr, ptr %4, align 8, !tbaa !4
  %23 = getelementptr inbounds nuw %struct.lxb_html_tree, ptr %22, i32 0, i32 10
  store i8 0, ptr %23, align 1, !tbaa !28
  br label %24

24:                                               ; preds = %76, %2
  %25 = load i64, ptr %10, align 8, !tbaa !50
  %26 = icmp ne i64 %25, 0
  br i1 %26, label %27, label %77

27:                                               ; preds = %24
  %28 = load i64, ptr %10, align 8, !tbaa !50
  %29 = add i64 %28, -1
  store i64 %29, ptr %10, align 8, !tbaa !50
  %30 = load ptr, ptr %9, align 8, !tbaa !9
  %31 = load i64, ptr %10, align 8, !tbaa !50
  %32 = getelementptr inbounds nuw ptr, ptr %30, i64 %31
  %33 = load ptr, ptr %32, align 8, !tbaa !9
  store ptr %33, ptr %7, align 8, !tbaa !37
  %34 = load ptr, ptr %7, align 8, !tbaa !37
  %35 = call zeroext i1 @lxb_html_tree_node_is(ptr noundef %34, i64 noundef 113)
  br i1 %35, label %36, label %49

36:                                               ; preds = %27
  %37 = load ptr, ptr %4, align 8, !tbaa !4
  call void @lxb_html_tree_generate_implied_end_tags(ptr noundef %37, i64 noundef 113, i64 noundef 2)
  %38 = load ptr, ptr %4, align 8, !tbaa !4
  %39 = call ptr @lxb_html_tree_current_node(ptr noundef %38)
  store ptr %39, ptr %7, align 8, !tbaa !37
  %40 = load ptr, ptr %7, align 8, !tbaa !37
  %41 = call zeroext i1 @lxb_html_tree_node_is(ptr noundef %40, i64 noundef 113)
  %42 = zext i1 %41 to i32
  %43 = icmp eq i32 %42, 0
  br i1 %43, label %44, label %47

44:                                               ; preds = %36
  %45 = load ptr, ptr %4, align 8, !tbaa !4
  %46 = load ptr, ptr %5, align 8, !tbaa !9
  call void @lxb_html_tree_parse_error(ptr noundef %45, ptr noundef %46, i32 noundef 22)
  br label %47

47:                                               ; preds = %44, %36
  %48 = load ptr, ptr %4, align 8, !tbaa !4
  call void @lxb_html_tree_open_elements_pop_until_tag_id(ptr noundef %48, i64 noundef 113, i64 noundef 2, i1 noundef zeroext true)
  br label %77

49:                                               ; preds = %27
  %50 = load ptr, ptr %7, align 8, !tbaa !37
  %51 = getelementptr inbounds nuw %struct.lxb_dom_node, ptr %50, i32 0, i32 1
  %52 = load i64, ptr %51, align 8, !tbaa !51
  %53 = load ptr, ptr %7, align 8, !tbaa !37
  %54 = getelementptr inbounds nuw %struct.lxb_dom_node, ptr %53, i32 0, i32 3
  %55 = load i64, ptr %54, align 8, !tbaa !55
  %56 = call zeroext i1 @lxb_html_tag_is_category(i64 noundef %52, i64 noundef %55, i32 noundef 2)
  %57 = zext i1 %56 to i8
  store i8 %57, ptr %6, align 1, !tbaa !38
  %58 = load i8, ptr %6, align 1, !tbaa !38, !range !29, !noundef !30
  %59 = trunc i8 %58 to i1
  br i1 %59, label %60, label %76

60:                                               ; preds = %49
  %61 = load ptr, ptr %7, align 8, !tbaa !37
  %62 = call zeroext i1 @lxb_html_tree_node_is(ptr noundef %61, i64 noundef 9)
  %63 = zext i1 %62 to i32
  %64 = icmp eq i32 %63, 0
  br i1 %64, label %65, label %76

65:                                               ; preds = %60
  %66 = load ptr, ptr %7, align 8, !tbaa !37
  %67 = call zeroext i1 @lxb_html_tree_node_is(ptr noundef %66, i64 noundef 51)
  %68 = zext i1 %67 to i32
  %69 = icmp eq i32 %68, 0
  br i1 %69, label %70, label %76

70:                                               ; preds = %65
  %71 = load ptr, ptr %7, align 8, !tbaa !37
  %72 = call zeroext i1 @lxb_html_tree_node_is(ptr noundef %71, i64 noundef 145)
  %73 = zext i1 %72 to i32
  %74 = icmp eq i32 %73, 0
  br i1 %74, label %75, label %76

75:                                               ; preds = %70
  br label %77

76:                                               ; preds = %70, %65, %60, %49
  br label %24

77:                                               ; preds = %75, %47, %24
  %78 = load ptr, ptr %4, align 8, !tbaa !4
  %79 = call ptr @lxb_html_tree_element_in_scope(ptr noundef %78, i64 noundef 145, i64 noundef 2, i32 noundef 32)
  store ptr %79, ptr %7, align 8, !tbaa !37
  %80 = load ptr, ptr %7, align 8, !tbaa !37
  %81 = icmp ne ptr %80, null
  br i1 %81, label %82, label %85

82:                                               ; preds = %77
  %83 = load ptr, ptr %4, align 8, !tbaa !4
  %84 = load ptr, ptr %5, align 8, !tbaa !9
  call void @lxb_html_tree_close_p_element(ptr noundef %83, ptr noundef %84)
  br label %85

85:                                               ; preds = %82, %77
  %86 = load ptr, ptr %4, align 8, !tbaa !4
  %87 = load ptr, ptr %5, align 8, !tbaa !9
  %88 = call ptr @lxb_html_tree_insert_html_element(ptr noundef %86, ptr noundef %87)
  store ptr %88, ptr %8, align 8, !tbaa !40
  %89 = load ptr, ptr %8, align 8, !tbaa !40
  %90 = icmp eq ptr %89, null
  br i1 %90, label %91, label %96

91:                                               ; preds = %85
  %92 = load ptr, ptr %4, align 8, !tbaa !4
  %93 = getelementptr inbounds nuw %struct.lxb_html_tree, ptr %92, i32 0, i32 18
  store i32 2, ptr %93, align 8, !tbaa !25
  %94 = load ptr, ptr %4, align 8, !tbaa !4
  %95 = call zeroext i1 @lxb_html_tree_process_abort(ptr noundef %94)
  store i1 %95, ptr %3, align 1
  store i32 1, ptr %11, align 4
  br label %97

96:                                               ; preds = %85
  store i1 true, ptr %3, align 1
  store i32 1, ptr %11, align 4
  br label %97

97:                                               ; preds = %96, %91
  call void @llvm.lifetime.end.p0(i64 8, ptr %10) #5
  call void @llvm.lifetime.end.p0(i64 8, ptr %9) #5
  call void @llvm.lifetime.end.p0(i64 8, ptr %8) #5
  call void @llvm.lifetime.end.p0(i64 8, ptr %7) #5
  call void @llvm.lifetime.end.p0(i64 1, ptr %6) #5
  %98 = load i1, ptr %3, align 1
  ret i1 %98
}