; Function Attrs: inlinehint nounwind uwtable
define internal fastcc zeroext i1 @lxb_html_tree_insertion_mode_in_body_li(ptr noundef initializes((81, 82)) %0, ptr noundef %1) unnamed_addr #3 {
  %3 = getelementptr inbounds nuw i8, ptr %0, i64 32
  %4 = load ptr, ptr %3, align 8, !tbaa !33
  %5 = load ptr, ptr %4, align 8, !tbaa !36
  %6 = getelementptr inbounds nuw i8, ptr %4, i64 16
  %7 = load i64, ptr %6, align 8, !tbaa !34
  %8 = getelementptr inbounds nuw i8, ptr %0, i64 81
  store i8 0, ptr %8, align 1, !tbaa !25
  %.not40 = icmp eq i64 %7, 0
  br i1 %.not40, label %lxb_html_tree_node_is.exit35.thread, label %.lr.ph.preheader

.lr.ph.preheader:                                 ; preds = %2
  %9 = add i64 %7, -1
  %10 = getelementptr inbounds nuw ptr, ptr %5, i64 %9
  %11 = load ptr, ptr %10, align 8, !tbaa !37
  %12 = getelementptr inbounds nuw i8, ptr %11, i64 8
  %13 = load i64, ptr %12, align 8, !tbaa !38
  %14 = icmp eq i64 %13, 113
  %15 = getelementptr inbounds nuw i8, ptr %11, i64 24
  %16 = load i64, ptr %15, align 8, !tbaa !42
  %17 = icmp eq i64 %16, 2
  %or.cond4546 = select i1 %14, i1 %17, i1 false
  br i1 %or.cond4546, label %.lr.ph._crit_edge, label %lxb_html_tree_node_is.exit.thread

.lr.ph._crit_edge:                                ; preds = %.lr.ph.backedge, %.lr.ph.preheader
  tail call void @lxb_html_tree_generate_implied_end_tags(ptr noundef %0, i64 noundef 113, i64 noundef 2) #6
  %.val = load ptr, ptr %3, align 8, !tbaa !33
  %18 = getelementptr inbounds nuw i8, ptr %.val, i64 16
  %19 = load i64, ptr %18, align 8, !tbaa !34
  %20 = icmp eq i64 %19, 0
  br i1 %20, label %lxb_html_tree_current_node.exit, label %21

21:                                               ; preds = %.lr.ph._crit_edge
  %22 = load ptr, ptr %.val, align 8, !tbaa !36
  %23 = getelementptr ptr, ptr %22, i64 %19
  %24 = getelementptr i8, ptr %23, i64 -8
  %25 = load ptr, ptr %24, align 8, !tbaa !37
  br label %lxb_html_tree_current_node.exit

lxb_html_tree_current_node.exit:                  ; preds = %.lr.ph._crit_edge, %21
  %.0.i = phi ptr [ %25, %21 ], [ null, %.lr.ph._crit_edge ]
  %26 = getelementptr inbounds nuw i8, ptr %.0.i, i64 8
  %27 = load i64, ptr %26, align 8, !tbaa !38
  %28 = icmp eq i64 %27, 113
  br i1 %28, label %lxb_html_tree_node_is.exit31, label %lxb_html_tree_node_is.exit31.thread

lxb_html_tree_node_is.exit31:                     ; preds = %lxb_html_tree_current_node.exit
  %29 = getelementptr inbounds nuw i8, ptr %.0.i, i64 24
  %30 = load i64, ptr %29, align 8, !tbaa !42
  %31 = icmp eq i64 %30, 2
  br i1 %31, label %32, label %lxb_html_tree_node_is.exit31.thread

lxb_html_tree_node_is.exit31.thread:              ; preds = %lxb_html_tree_current_node.exit, %lxb_html_tree_node_is.exit31
  tail call void @lxb_html_tree_parse_error(ptr noundef nonnull %0, ptr noundef %1, i32 noundef 22) #6
  br label %32

32:                                               ; preds = %lxb_html_tree_node_is.exit31.thread, %lxb_html_tree_node_is.exit31
  tail call void @lxb_html_tree_open_elements_pop_until_tag_id(ptr noundef nonnull %0, i64 noundef 113, i64 noundef 2, i1 noundef zeroext true) #6
  br label %lxb_html_tree_node_is.exit35.thread

lxb_html_tree_node_is.exit.thread:                ; preds = %.lr.ph.preheader, %.lr.ph.backedge
  %33 = phi i64 [ %52, %.lr.ph.backedge ], [ %16, %.lr.ph.preheader ]
  %34 = phi i64 [ %49, %.lr.ph.backedge ], [ %13, %.lr.ph.preheader ]
  %35 = phi i64 [ %45, %.lr.ph.backedge ], [ %9, %.lr.ph.preheader ]
  %36 = icmp ult i64 %34, 196
  %37 = icmp ult i64 %33, 8
  %or.cond.i = and i1 %36, %37
  br i1 %or.cond.i, label %lxb_html_tag_is_category.exit, label %lxb_html_tag_is_category.exit.thread

lxb_html_tag_is_category.exit:                    ; preds = %lxb_html_tree_node_is.exit.thread
  %38 = getelementptr inbounds nuw [196 x [8 x i32]], ptr @lxb_html_tag_res_cats, i64 0, i64 %34, i64 %33
  %39 = load i32, ptr %38, align 4, !tbaa !45
  %40 = and i32 %39, 2
  %.not39 = icmp eq i32 %40, 0
  br i1 %.not39, label %lxb_html_tag_is_category.exit.thread, label %41

41:                                               ; preds = %lxb_html_tag_is_category.exit
  %trunc = trunc nuw i64 %34 to i8
  switch i8 %trunc, label %lxb_html_tree_node_is.exit35.thread [
    i8 9, label %lxb_html_tree_node_is.exit33
    i8 51, label %lxb_html_tree_node_is.exit34
    i8 -111, label %lxb_html_tree_node_is.exit35
  ]

lxb_html_tree_node_is.exit33:                     ; preds = %41
  %42 = icmp ne i64 %33, 2
  %.not.old.old = icmp eq i64 %35, 0
  %or.cond44 = or i1 %42, %.not.old.old
  br i1 %or.cond44, label %lxb_html_tree_node_is.exit35.thread, label %.lr.ph.backedge

lxb_html_tree_node_is.exit34:                     ; preds = %41
  %43 = icmp ne i64 %33, 2
  %.not.old = icmp eq i64 %35, 0
  %or.cond43 = or i1 %43, %.not.old
  br i1 %or.cond43, label %lxb_html_tree_node_is.exit35.thread, label %.lr.ph.backedge

lxb_html_tree_node_is.exit35:                     ; preds = %41
  %44 = icmp ne i64 %33, 2
  %.not = icmp eq i64 %35, 0
  %or.cond = or i1 %44, %.not
  br i1 %or.cond, label %lxb_html_tree_node_is.exit35.thread, label %.lr.ph.backedge

lxb_html_tag_is_category.exit.thread:             ; preds = %lxb_html_tree_node_is.exit.thread, %lxb_html_tag_is_category.exit
  %.not.old.old.old = icmp eq i64 %35, 0
  br i1 %.not.old.old.old, label %lxb_html_tree_node_is.exit35.thread, label %.lr.ph.backedge

.lr.ph.backedge:                                  ; preds = %lxb_html_tag_is_category.exit.thread, %lxb_html_tree_node_is.exit35, %lxb_html_tree_node_is.exit34, %lxb_html_tree_node_is.exit33
  %45 = add i64 %35, -1
  %46 = getelementptr inbounds nuw ptr, ptr %5, i64 %45
  %47 = load ptr, ptr %46, align 8, !tbaa !37
  %48 = getelementptr inbounds nuw i8, ptr %47, i64 8
  %49 = load i64, ptr %48, align 8, !tbaa !38
  %50 = icmp eq i64 %49, 113
  %51 = getelementptr inbounds nuw i8, ptr %47, i64 24
  %52 = load i64, ptr %51, align 8, !tbaa !42
  %53 = icmp eq i64 %52, 2
  %or.cond45 = select i1 %50, i1 %53, i1 false
  br i1 %or.cond45, label %.lr.ph._crit_edge, label %lxb_html_tree_node_is.exit.thread

lxb_html_tree_node_is.exit35.thread:              ; preds = %lxb_html_tag_is_category.exit.thread, %lxb_html_tree_node_is.exit35, %lxb_html_tree_node_is.exit33, %lxb_html_tree_node_is.exit34, %41, %2, %32
  %54 = tail call ptr @lxb_html_tree_element_in_scope(ptr noundef %0, i64 noundef 145, i64 noundef 2, i32 noundef 32) #6
  %.not30 = icmp eq ptr %54, null
  br i1 %.not30, label %56, label %55

55:                                               ; preds = %lxb_html_tree_node_is.exit35.thread
  tail call void @lxb_html_tree_close_p_element(ptr noundef %0, ptr noundef %1) #6
  br label %56

56:                                               ; preds = %55, %lxb_html_tree_node_is.exit35.thread
  %57 = tail call ptr @lxb_html_tree_insert_foreign_element(ptr noundef %0, ptr noundef %1, i64 noundef 2) #6
  %58 = icmp eq ptr %57, null
  br i1 %58, label %59, label %62

59:                                               ; preds = %56
  %60 = getelementptr inbounds nuw i8, ptr %0, i64 112
  store i32 2, ptr %60, align 8, !tbaa !22
  %61 = tail call zeroext i1 @lxb_html_tree_process_abort(ptr noundef %0) #6
  br label %62

62:                                               ; preds = %56, %59
  %.029 = phi i1 [ %61, %59 ], [ true, %56 ]
  ret i1 %.029
}